target datalayout = "e-m:e-p270:32:32-p271:32:32-p272:64:64-i64:64-i128:128-f80:128-n8:16:32:64-S128"
target triple = "x86_64-pc-linux-gnu"

%struct.ossl_cmp_msg_st = type { ptr, ptr, ptr, ptr, ptr, ptr }

@.str.12 = private unnamed_addr constant [32 x i8] c"../openssl/crypto/cmp/cmp_asn.c\00", align 1

; Function Attrs: nounwind uwtable
define internal i32 @ossl_cmp_msg_cb(i32 noundef %0, ptr noundef %1, ptr noundef %2, ptr noundef %3) #0 {
  %5 = alloca i32, align 4
  %6 = alloca i32, align 4
  %7 = alloca ptr, align 8
  %8 = alloca ptr, align 8
  %9 = alloca ptr, align 8
  %10 = alloca ptr, align 8
  %11 = alloca ptr, align 8
  %12 = alloca i32, align 4
  %13 = alloca ptr, align 8
  %14 = alloca ptr, align 8
  store i32 %0, ptr %6, align 4, !tbaa !59
  store ptr %1, ptr %7, align 8, !tbaa !204
  store ptr %2, ptr %8, align 8, !tbaa !206
  store ptr %3, ptr %9, align 8, !tbaa !69
  call void @llvm.lifetime.start.p0(i64 8, ptr %10) #4
  %15 = load ptr, ptr %7, align 8, !tbaa !204
  %16 = load ptr, ptr %15, align 8, !tbaa !208
  store ptr %16, ptr %10, align 8, !tbaa !202
  %17 = load i32, ptr %6, align 4, !tbaa !59
  switch i32 %17, label %50 [
    i32 3, label %18
    i32 15, label %22
    i32 16, label %38
    i32 17, label %44
  ]

18:                                               ; preds = %4
  %19 = load ptr, ptr %10, align 8, !tbaa !202
  %20 = getelementptr inbounds nuw %struct.ossl_cmp_msg_st, ptr %19, i32 0, i32 5
  %21 = load ptr, ptr %20, align 8, !tbaa !210
  call void @CRYPTO_free(ptr noundef %21, ptr noundef @.str.12, i32 noundef 858)
  br label %51

22:                                               ; preds = %4
  call void @llvm.lifetime.start.p0(i64 8, ptr %11) #4
  %23 = load ptr, ptr %9, align 8, !tbaa !69
  store ptr %23, ptr %11, align 8, !tbaa !202
  %24 = load ptr, ptr %10, align 8, !tbaa !202
  %25 = load ptr, ptr %11, align 8, !tbaa !202
  %26 = getelementptr inbounds nuw %struct.ossl_cmp_msg_st, ptr %25, i32 0, i32 4
  %27 = load ptr, ptr %26, align 8, !tbaa !213
  %28 = load ptr, ptr %11, align 8, !tbaa !202
  %29 = getelementptr inbounds nuw %struct.ossl_cmp_msg_st, ptr %28, i32 0, i32 5
  %30 = load ptr, ptr %29, align 8, !tbaa !210
  %31 = call i32 @ossl_cmp_msg_set0_libctx(ptr noundef %24, ptr noundef %27, ptr noundef %30)
  %32 = icmp ne i32 %31, 0
  br i1 %32, label %34, label %33

33:                                               ; preds = %22
  store i32 0, ptr %5, align 4
  store i32 1, ptr %12, align 4
  br label %35

34:                                               ; preds = %22
  store i32 0, ptr %12, align 4
  br label %35

35:                                               ; preds = %34, %33
  call void @llvm.lifetime.end.p0(i64 8, ptr %11) #4
  %36 = load i32, ptr %12, align 4
  switch i32 %36, label %52 [
    i32 0, label %37
  ]

37:                                               ; preds = %35
  br label %51

38:                                               ; preds = %4
  call void @llvm.lifetime.start.p0(i64 8, ptr %13) #4
  %39 = load ptr, ptr %9, align 8, !tbaa !69
  store ptr %39, ptr %13, align 8, !tbaa !214
  %40 = load ptr, ptr %10, align 8, !tbaa !202
  %41 = getelementptr inbounds nuw %struct.ossl_cmp_msg_st, ptr %40, i32 0, i32 4
  %42 = load ptr, ptr %41, align 8, !tbaa !213
  %43 = load ptr, ptr %13, align 8, !tbaa !214
  store ptr %42, ptr %43, align 8, !tbaa !216
  call void @llvm.lifetime.end.p0(i64 8, ptr %13) #4
  br label %51

44:                                               ; preds = %4
  call void @llvm.lifetime.start.p0(i64 8, ptr %14) #4
  %45 = load ptr, ptr %9, align 8, !tbaa !69
  store ptr %45, ptr %14, align 8, !tbaa !8
  %46 = load ptr, ptr %10, align 8, !tbaa !202
  %47 = getelementptr inbounds nuw %struct.ossl_cmp_msg_st, ptr %46, i32 0, i32 5
  %48 = load ptr, ptr %47, align 8, !tbaa !210
  %49 = load ptr, ptr %14, align 8, !tbaa !8
  store ptr %48, ptr %49, align 8, !tbaa !89
  call void @llvm.lifetime.end.p0(i64 8, ptr %14) #4
  br label %51

50:                                               ; preds = %4
  br label %51

51:                                               ; preds = %50, %44, %38, %37, %18
  store i32 1, ptr %5, align 4
  store i32 1, ptr %12, align 4
  br label %52

52:                                               ; preds = %51, %35
  call void @llvm.lifetime.end.p0(i64 8, ptr %10) #4
  %53 = load i32, ptr %5, align 4
  ret i32 %53
}