; Function Attrs: nounwind uwtable
define internal range(i32 0, 2) i32 @ossl_cmp_msg_cb(i32 noundef %0, ptr noundef readonly captures(none) %1, ptr readnone captures(none) %2, ptr noundef captures(none) %3) #1 {
  %5 = load ptr, ptr %1, align 8, !tbaa !64
  switch i32 %0, label %21 [
    i32 3, label %6
    i32 15, label %9
    i32 16, label %15
    i32 17, label %18
  ]

6:                                                ; preds = %4
  %7 = getelementptr inbounds nuw i8, ptr %5, i64 40
  %8 = load ptr, ptr %7, align 8, !tbaa !66
  tail call void @CRYPTO_free(ptr noundef %8, ptr noundef nonnull @.str.12, i32 noundef 858) #6
  br label %21

9:                                                ; preds = %4
  %10 = getelementptr inbounds nuw i8, ptr %3, i64 32
  %11 = load ptr, ptr %10, align 8, !tbaa !72
  %12 = getelementptr inbounds nuw i8, ptr %3, i64 40
  %13 = load ptr, ptr %12, align 8, !tbaa !66
  %14 = tail call i32 @ossl_cmp_msg_set0_libctx(ptr noundef %5, ptr noundef %11, ptr noundef %13) #6
  %.not.not = icmp eq i32 %14, 0
  br i1 %.not.not, label %22, label %21

15:                                               ; preds = %4
  %16 = getelementptr inbounds nuw i8, ptr %5, i64 32
  %17 = load ptr, ptr %16, align 8, !tbaa !72
  store ptr %17, ptr %3, align 8, !tbaa !73
  br label %21

18:                                               ; preds = %4
  %19 = getelementptr inbounds nuw i8, ptr %5, i64 40
  %20 = load ptr, ptr %19, align 8, !tbaa !66
  store ptr %20, ptr %3, align 8, !tbaa !74
  br label %21

21:                                               ; preds = %4, %9, %18, %15, %6
  br label %22

22:                                               ; preds = %9, %21
  %.1 = phi i32 [ 1, %21 ], [ 0, %9 ]
  ret i32 %.1
}